target datalayout = "e-m:e-p270:32:32-p271:32:32-p272:64:64-i64:64-i128:128-f80:128-n8:16:32:64-S128"
target triple = "x86_64-pc-linux-gnu"

%struct._fvalue_t = type { ptr, %union.anon.1 }
%union.anon.1 = type { %struct._protocol_value_t }
%struct._protocol_value_t = type { ptr, i32, ptr, i8 }

; Function Attrs: nounwind null_pointer_is_valid sspstrong uwtable
define internal i32 @float_ieee_11073_val_to_double(ptr noundef %0, ptr noundef %1) #1 {
  %3 = alloca i32, align 4
  %4 = alloca ptr, align 8
  %5 = alloca ptr, align 8
  %6 = alloca i8, align 1
  %7 = alloca i16, align 2
  %8 = alloca i16, align 2
  %9 = alloca i32, align 4
  store ptr %0, ptr %4, align 8
  store ptr %1, ptr %5, align 8
  call void @llvm.lifetime.start.p0(i64 1, ptr %6) #7
  call void @llvm.lifetime.start.p0(i64 2, ptr %7) #7
  call void @llvm.lifetime.start.p0(i64 2, ptr %8) #7
  %10 = load ptr, ptr %4, align 8
  %11 = getelementptr inbounds nuw %struct._fvalue_t, ptr %10, i32 0, i32 1
  %12 = load i32, ptr %11, align 8
  switch i32 %12, label %19 [
    i32 8388606, label %13
    i32 8388607, label %15
    i32 8388608, label %15
    i32 8388609, label %15
    i32 8388610, label %17
  ]

13:                                               ; preds = %2
  %14 = load ptr, ptr %5, align 8
  store double 0x7FF0000000000000, ptr %14, align 8
  store i32 0, ptr %3, align 4
  store i32 1, ptr %9, align 4
  br label %59

15:                                               ; preds = %2, %2, %2
  %16 = load ptr, ptr %5, align 8
  store double 0x7FF8000000000000, ptr %16, align 8
  store i32 0, ptr %3, align 4
  store i32 1, ptr %9, align 4
  br label %59

17:                                               ; preds = %2
  %18 = load ptr, ptr %5, align 8
  store double 0xFFF0000000000000, ptr %18, align 8
  store i32 0, ptr %3, align 4
  store i32 1, ptr %9, align 4
  br label %59

19:                                               ; preds = %2
  br label %20

20:                                               ; preds = %19
  %21 = load ptr, ptr %4, align 8
  %22 = getelementptr inbounds nuw %struct._fvalue_t, ptr %21, i32 0, i32 1
  %23 = load i32, ptr %22, align 8
  %24 = and i32 %23, 8388607
  %25 = trunc i32 %24 to i16
  store i16 %25, ptr %7, align 2
  %26 = load i16, ptr %7, align 2
  %27 = zext i16 %26 to i32
  %28 = icmp eq i32 %27, 0
  br i1 %28, label %29, label %31

29:                                               ; preds = %20
  %30 = load ptr, ptr %5, align 8
  store double 0.000000e+00, ptr %30, align 8
  store i32 0, ptr %3, align 4
  store i32 1, ptr %9, align 4
  br label %59

31:                                               ; preds = %20
  %32 = load ptr, ptr %4, align 8
  %33 = getelementptr inbounds nuw %struct._fvalue_t, ptr %32, i32 0, i32 1
  %34 = load i32, ptr %33, align 8
  %35 = and i32 %34, 8388608
  %36 = trunc i32 %35 to i16
  store i16 %36, ptr %8, align 2
  %37 = load i16, ptr %8, align 2
  %38 = icmp ne i16 %37, 0
  br i1 %38, label %39, label %45

39:                                               ; preds = %31
  %40 = load i16, ptr %7, align 2
  %41 = zext i16 %40 to i32
  %42 = or i32 %41, -16777216
  %43 = sub i32 0, %42
  %44 = trunc i32 %43 to i16
  store i16 %44, ptr %7, align 2
  br label %45

45:                                               ; preds = %39, %31
  %46 = load ptr, ptr %4, align 8
  %47 = getelementptr inbounds nuw %struct._fvalue_t, ptr %46, i32 0, i32 1
  %48 = load i32, ptr %47, align 8
  %49 = lshr i32 %48, 24
  %50 = trunc i32 %49 to i8
  store i8 %50, ptr %6, align 1
  %51 = load i16, ptr %7, align 2
  %52 = zext i16 %51 to i32
  %53 = sitofp i32 %52 to double
  %54 = load i8, ptr %6, align 1
  %55 = sitofp i8 %54 to double
  %56 = call double @pow(double noundef 1.000000e+01, double noundef %55) #7
  %57 = fmul double %53, %56
  %58 = load ptr, ptr %5, align 8
  store double %57, ptr %58, align 8
  store i32 0, ptr %3, align 4
  store i32 1, ptr %9, align 4
  br label %59

59:                                               ; preds = %45, %29, %17, %15, %13
  call void @llvm.lifetime.end.p0(i64 2, ptr %8) #7
  call void @llvm.lifetime.end.p0(i64 2, ptr %7) #7
  call void @llvm.lifetime.end.p0(i64 1, ptr %6) #7
  %60 = load i32, ptr %3, align 4
  ret i32 %60
}