; Function Attrs: mustprogress nofree nounwind null_pointer_is_valid sspstrong willreturn memory(write, argmem: readwrite) uwtable
define internal noundef i32 @float_ieee_11073_val_to_double(ptr noundef readonly captures(none) %0, ptr noundef writeonly captures(none) initializes((0, 8)) %1) #2 {
  %3 = getelementptr inbounds nuw i8, ptr %0, i64 8
  %4 = load i32, ptr %3, align 8
  %switch.tableidx = add i32 %4, -8388606
  %5 = icmp ult i32 %switch.tableidx, 5
  br i1 %5, label %switch.lookup, label %6

6:                                                ; preds = %2
  %7 = and i32 %4, 65535
  %8 = icmp eq i32 %7, 0
  br i1 %8, label %17, label %9

9:                                                ; preds = %6
  %10 = lshr i32 %4, 24
  %11 = trunc nuw i32 %10 to i8
  %12 = uitofp nneg i32 %7 to double
  %13 = sitofp i8 %11 to double
  %14 = tail call double @pow(double noundef 1.000000e+01, double noundef %13) #11
  %15 = fmul double %14, %12
  br label %17

switch.lookup:                                    ; preds = %2
  %16 = zext nneg i32 %switch.tableidx to i64
  %switch.gep = getelementptr inbounds nuw [5 x double], ptr @switch.table.float_ieee_11073_val_to_double, i64 0, i64 %16
  %switch.load = load double, ptr %switch.gep, align 8
  br label %17

17:                                               ; preds = %switch.lookup, %6, %9
  %.sink = phi double [ %15, %9 ], [ 0.000000e+00, %6 ], [ %switch.load, %switch.lookup ]
  store double %.sink, ptr %1, align 8
  ret i32 0
}